target datalayout = "e-m:e-p270:32:32-p271:32:32-p272:64:64-i64:64-i128:128-f80:128-n8:16:32:64-S128"
target triple = "x86_64-pc-linux-gnu"

%struct.hb_sparseset_t = type { %struct.hb_object_header_t, %struct.hb_bit_set_invertible_t }
%struct.hb_object_header_t = type { %struct.hb_reference_count_t, %struct.hb_atomic_int_t, %struct.hb_atomic_ptr_t }
%struct.hb_reference_count_t = type { %struct.hb_atomic_int_t }
%struct.hb_atomic_int_t = type { i32 }
%struct.hb_atomic_ptr_t = type { ptr }
%struct.hb_bit_set_invertible_t = type <{ %struct.hb_bit_set_t, i8, [7 x i8] }>
%struct.hb_bit_set_t = type { i8, i32, %struct.hb_atomic_int_t, %struct.hb_vector_t, %struct.hb_vector_t.0 }
%struct.hb_vector_t = type { i32, i32, ptr }
%struct.hb_vector_t.0 = type { i32, i32, ptr }

; Function Attrs: mustprogress uwtable
define linkonce_odr hidden noundef zeroext i1 @_ZN23hb_bit_set_invertible_t9add_rangeEjj(ptr noundef nonnull align 8 dereferenceable(49) %0, i32 noundef %1, i32 noundef %2) #0 comdat align 2 {
  %4 = alloca ptr, align 8
  %5 = alloca i32, align 4
  %6 = alloca i32, align 4
  store ptr %0, ptr %4, align 8
  store i32 %1, ptr %5, align 4
  store i32 %2, ptr %6, align 4
  %7 = load ptr, ptr %4, align 8
  %8 = getelementptr inbounds %struct.hb_bit_set_invertible_t, ptr %7, i32 0, i32 1
  %9 = load i8, ptr %8, align 8
  %10 = trunc i8 %9 to i1
  br i1 %10, label %11, label %15

11:                                               ; preds = %3
  %12 = getelementptr inbounds %struct.hb_bit_set_invertible_t, ptr %7, i32 0, i32 0
  %13 = load i32, ptr %5, align 4
  %14 = load i32, ptr %6, align 4
  call void @_ZN12hb_bit_set_t9del_rangeEjj(ptr noundef nonnull align 8 dereferenceable(48) %12, i32 noundef %13, i32 noundef %14)
  br label %20

15:                                               ; preds = %3
  %16 = getelementptr inbounds %struct.hb_bit_set_invertible_t, ptr %7, i32 0, i32 0
  %17 = load i32, ptr %5, align 4
  %18 = load i32, ptr %6, align 4
  %19 = call noundef zeroext i1 @_ZN12hb_bit_set_t9add_rangeEjj(ptr noundef nonnull align 8 dereferenceable(48) %16, i32 noundef %17, i32 noundef %18)
  br label %20

20:                                               ; preds = %15, %11
  %21 = phi i1 [ true, %11 ], [ %19, %15 ]
  ret i1 %21
}

; Function Attrs: mustprogress uwtable
define linkonce_odr hidden noundef zeroext i1 @_ZN14hb_sparseset_tI23hb_bit_set_invertible_tE9add_rangeEjj(ptr noundef nonnull align 8 dereferenceable(72) %0, i32 noundef %1, i32 noundef %2) #0 comdat align 2 {
  %4 = alloca ptr, align 8
  %5 = alloca i32, align 4
  %6 = alloca i32, align 4
  store ptr %0, ptr %4, align 8
  store i32 %1, ptr %5, align 4
  store i32 %2, ptr %6, align 4
  %7 = load ptr, ptr %4, align 8
  %8 = getelementptr inbounds %struct.hb_sparseset_t, ptr %7, i32 0, i32 1
  %9 = load i32, ptr %5, align 4
  %10 = load i32, ptr %6, align 4
  %11 = call noundef zeroext i1 @_ZN23hb_bit_set_invertible_t9add_rangeEjj(ptr noundef nonnull align 8 dereferenceable(49) %8, i32 noundef %9, i32 noundef %10)
  ret i1 %11
}

; Function Attrs: mustprogress uwtable
define hidden void @hb_set_add_range(ptr noundef %0, i32 noundef %1, i32 noundef %2) #0 {
  %4 = alloca ptr, align 8
  %5 = alloca i32, align 4
  %6 = alloca i32, align 4
  store ptr %0, ptr %4, align 8
  store i32 %1, ptr %5, align 4
  store i32 %2, ptr %6, align 4
  %7 = load ptr, ptr %4, align 8
  %8 = load i32, ptr %5, align 4
  %9 = load i32, ptr %6, align 4
  %10 = call noundef zeroext i1 @_ZN14hb_sparseset_tI23hb_bit_set_invertible_tE9add_rangeEjj(ptr noundef nonnull align 8 dereferenceable(72) %7, i32 noundef %8, i32 noundef %9)
  ret void
}